target datalayout = "e-m:e-p270:32:32-p271:32:32-p272:64:64-i64:64-i128:128-f80:128-n8:16:32:64-S128"
target triple = "x86_64-pc-linux-gnu"

%"class.nix::PosIdx" = type { i32 }
%"struct.nix::Expr" = type { ptr }
%"struct.std::_Rb_tree_header" = type { %"struct.std::_Rb_tree_node_base", i64 }
%"struct.std::_Rb_tree_node_base" = type { i32, ptr, ptr, ptr }
%"struct.nix::ExprAttrs" = type { %"struct.nix::Expr", i8, %"class.nix::PosIdx", %"class.std::map", %"class.std::unique_ptr", %"class.std::vector.25" }
%"class.std::map" = type { %"class.std::_Rb_tree" }
%"class.std::_Rb_tree" = type { %"struct.std::_Rb_tree<nix::Symbol, std::pair<const nix::Symbol, nix::ExprAttrs::AttrDef>, std::_Select1st<std::pair<const nix::Symbol, nix::ExprAttrs::AttrDef>>, std::less<nix::Symbol>>::_Rb_tree_impl" }
%"struct.std::_Rb_tree<nix::Symbol, std::pair<const nix::Symbol, nix::ExprAttrs::AttrDef>, std::_Select1st<std::pair<const nix::Symbol, nix::ExprAttrs::AttrDef>>, std::less<nix::Symbol>>::_Rb_tree_impl" = type { %"struct.std::_Rb_tree_key_compare", %"struct.std::_Rb_tree_header" }
%"struct.std::_Rb_tree_key_compare" = type { %"struct.std::less" }
%"struct.std::less" = type { i8 }
%"class.std::unique_ptr" = type { %"struct.std::__uniq_ptr_data" }
%"struct.std::__uniq_ptr_data" = type { %"class.std::__uniq_ptr_impl" }
%"class.std::__uniq_ptr_impl" = type { %"class.std::tuple" }
%"class.std::tuple" = type { %"struct.std::_Tuple_impl" }
%"struct.std::_Tuple_impl" = type { %"struct.std::_Head_base.24" }
%"struct.std::_Head_base.24" = type { ptr }
%"class.std::vector.25" = type { %"struct.std::_Vector_base.26" }
%"struct.std::_Vector_base.26" = type { %"struct.std::_Vector_base<nix::ExprAttrs::DynamicAttrDef, std::allocator<nix::ExprAttrs::DynamicAttrDef>>::_Vector_impl" }
%"struct.std::_Vector_base<nix::ExprAttrs::DynamicAttrDef, std::allocator<nix::ExprAttrs::DynamicAttrDef>>::_Vector_impl" = type { %"struct.std::_Vector_base<nix::ExprAttrs::DynamicAttrDef, std::allocator<nix::ExprAttrs::DynamicAttrDef>>::_Vector_impl_data" }
%"struct.std::_Vector_base<nix::ExprAttrs::DynamicAttrDef, std::allocator<nix::ExprAttrs::DynamicAttrDef>>::_Vector_impl_data" = type { ptr, ptr, ptr }

@.str.18 = private unnamed_addr constant [5 x i8] c"rec \00", align 1
@.str.19 = private unnamed_addr constant [3 x i8] c"{ \00", align 1
@.str.20 = private unnamed_addr constant [2 x i8] c"}\00", align 1

; Function Attrs: mustprogress uwtable
define void @_ZNK3nix9ExprAttrs4showERKNS_11SymbolTableERSo(ptr noundef nonnull align 8 dereferenceable(96) %0, ptr noundef nonnull align 8 dereferenceable(88) %1, ptr noundef nonnull align 8 dereferenceable(8) %2) unnamed_addr #5 align 2 {
  %4 = alloca ptr, align 8
  %5 = alloca ptr, align 8
  %6 = alloca ptr, align 8
  store ptr %0, ptr %4, align 8
  store ptr %1, ptr %5, align 8
  store ptr %2, ptr %6, align 8
  %7 = load ptr, ptr %4, align 8
  %8 = getelementptr inbounds %"struct.nix::ExprAttrs", ptr %7, i32 0, i32 1
  %9 = load i8, ptr %8, align 8
  %10 = trunc i8 %9 to i1
  br i1 %10, label %11, label %14

11:                                               ; preds = %3
  %12 = load ptr, ptr %6, align 8
  %13 = call noundef nonnull align 8 dereferenceable(8) ptr @_ZStlsISt11char_traitsIcEERSt13basic_ostreamIcT_ES5_PKc(ptr noundef nonnull align 8 dereferenceable(8) %12, ptr noundef @.str.18)
  br label %14

14:                                               ; preds = %11, %3
  %15 = load ptr, ptr %6, align 8
  %16 = call noundef nonnull align 8 dereferenceable(8) ptr @_ZStlsISt11char_traitsIcEERSt13basic_ostreamIcT_ES5_PKc(ptr noundef nonnull align 8 dereferenceable(8) %15, ptr noundef @.str.19)
  %17 = load ptr, ptr %5, align 8
  %18 = load ptr, ptr %6, align 8
  call void @_ZNK3nix9ExprAttrs12showBindingsERKNS_11SymbolTableERSo(ptr noundef nonnull align 8 dereferenceable(96) %7, ptr noundef nonnull align 8 dereferenceable(88) %17, ptr noundef nonnull align 8 dereferenceable(8) %18)
  %19 = load ptr, ptr %6, align 8
  %20 = call noundef nonnull align 8 dereferenceable(8) ptr @_ZStlsISt11char_traitsIcEERSt13basic_ostreamIcT_ES5_PKc(ptr noundef nonnull align 8 dereferenceable(8) %19, ptr noundef @.str.20)
  ret void
}